; Function Attrs: nounwind uwtable
define ptr @l___private_Lean_Elab_Binders_0__Lean_Elab_Term_FunBinders_elabFunBinderViews___lambda__1___boxed(ptr noundef %0, ptr noundef %1, ptr noundef %2, ptr noundef %3, ptr noundef %4, ptr noundef %5, ptr noundef %6, ptr noundef %7, ptr noundef %8, ptr noundef %9, ptr noundef %10, ptr noundef %11, ptr noundef %12, ptr noundef %13) #1 {
  %15 = tail call ptr @l___private_Lean_Elab_Binders_0__Lean_Elab_Term_FunBinders_elabFunBinderViews___lambda__1(ptr noundef %0, ptr noundef %1, ptr noundef %2, ptr noundef %3, ptr noundef %4, ptr noundef %5, ptr noundef %6, ptr noundef %7, ptr noundef %8, ptr noundef %9, ptr noundef %10, ptr noundef %11, ptr noundef %12, ptr noundef %13)
  %16 = ptrtoint ptr %5 to i64
  %17 = and i64 %16, 1
  %.not = icmp eq i64 %17, 0
  br i1 %.not, label %18, label %lean_dec.exit

18:                                               ; preds = %14
  %19 = load i32, ptr %5, align 4, !tbaa !8
  %20 = icmp sgt i32 %19, 1
  br i1 %20, label %21, label %23, !prof !11

21:                                               ; preds = %18
  %22 = add nsw i32 %19, -1
  store i32 %22, ptr %5, align 4, !tbaa !8
  br label %lean_dec.exit

23:                                               ; preds = %18
  %.not.i = icmp eq i32 %19, 0
  br i1 %.not.i, label %lean_dec.exit, label %24

24:                                               ; preds = %23
  tail call void @lean_dec_ref_cold(ptr noundef nonnull %5) #6
  br label %lean_dec.exit

lean_dec.exit:                                    ; preds = %24, %23, %21, %14
  ret ptr %15
}